target datalayout = "e-m:e-p270:32:32-p271:32:32-p272:64:64-i64:64-i128:128-f80:128-n8:16:32:64-S128"
target triple = "x86_64-pc-linux-gnu"

; Function Attrs: mustprogress nounwind uwtable
define internal noundef i32 @_ZL18Integer_rotateLeftji(i32 noundef %0, i32 noundef %1) #1 {
  %3 = alloca i32, align 4
  %4 = alloca i32, align 4
  store i32 %0, ptr %3, align 4
  store i32 %1, ptr %4, align 4
  %5 = load i32, ptr %3, align 4
  %6 = load i32, ptr %4, align 4
  %7 = shl i32 %5, %6
  %8 = load i32, ptr %3, align 4
  %9 = load i32, ptr %4, align 4
  %10 = sub nsw i32 32, %9
  %11 = lshr i32 %8, %10
  %12 = or i32 %7, %11
  ret i32 %12
}

; Function Attrs: mustprogress nounwind uwtable
define internal void @_ZL18halfsiphash_roundsPji(ptr noundef %0, i32 noundef %1) #1 {
  %3 = alloca ptr, align 8
  %4 = alloca i32, align 4
  store ptr %0, ptr %3, align 8
  store i32 %1, ptr %4, align 4
  br label %5

5:                                                ; preds = %9, %2
  %6 = load i32, ptr %4, align 4
  %7 = add nsw i32 %6, -1
  store i32 %7, ptr %4, align 4
  %8 = icmp sgt i32 %6, 0
  br i1 %8, label %9, label %102

9:                                                ; preds = %5
  %10 = load ptr, ptr %3, align 8
  %11 = getelementptr inbounds i32, ptr %10, i64 1
  %12 = load i32, ptr %11, align 4
  %13 = load ptr, ptr %3, align 8
  %14 = getelementptr inbounds i32, ptr %13, i64 0
  %15 = load i32, ptr %14, align 4
  %16 = add i32 %15, %12
  store i32 %16, ptr %14, align 4
  %17 = load ptr, ptr %3, align 8
  %18 = getelementptr inbounds i32, ptr %17, i64 1
  %19 = load i32, ptr %18, align 4
  %20 = call noundef i32 @_ZL18Integer_rotateLeftji(i32 noundef %19, i32 noundef 5)
  %21 = load ptr, ptr %3, align 8
  %22 = getelementptr inbounds i32, ptr %21, i64 1
  store i32 %20, ptr %22, align 4
  %23 = load ptr, ptr %3, align 8
  %24 = getelementptr inbounds i32, ptr %23, i64 0
  %25 = load i32, ptr %24, align 4
  %26 = load ptr, ptr %3, align 8
  %27 = getelementptr inbounds i32, ptr %26, i64 1
  %28 = load i32, ptr %27, align 4
  %29 = xor i32 %28, %25
  store i32 %29, ptr %27, align 4
  %30 = load ptr, ptr %3, align 8
  %31 = getelementptr inbounds i32, ptr %30, i64 0
  %32 = load i32, ptr %31, align 4
  %33 = call noundef i32 @_ZL18Integer_rotateLeftji(i32 noundef %32, i32 noundef 16)
  %34 = load ptr, ptr %3, align 8
  %35 = getelementptr inbounds i32, ptr %34, i64 0
  store i32 %33, ptr %35, align 4
  %36 = load ptr, ptr %3, align 8
  %37 = getelementptr inbounds i32, ptr %36, i64 3
  %38 = load i32, ptr %37, align 4
  %39 = load ptr, ptr %3, align 8
  %40 = getelementptr inbounds i32, ptr %39, i64 2
  %41 = load i32, ptr %40, align 4
  %42 = add i32 %41, %38
  store i32 %42, ptr %40, align 4
  %43 = load ptr, ptr %3, align 8
  %44 = getelementptr inbounds i32, ptr %43, i64 3
  %45 = load i32, ptr %44, align 4
  %46 = call noundef i32 @_ZL18Integer_rotateLeftji(i32 noundef %45, i32 noundef 8)
  %47 = load ptr, ptr %3, align 8
  %48 = getelementptr inbounds i32, ptr %47, i64 3
  store i32 %46, ptr %48, align 4
  %49 = load ptr, ptr %3, align 8
  %50 = getelementptr inbounds i32, ptr %49, i64 2
  %51 = load i32, ptr %50, align 4
  %52 = load ptr, ptr %3, align 8
  %53 = getelementptr inbounds i32, ptr %52, i64 3
  %54 = load i32, ptr %53, align 4
  %55 = xor i32 %54, %51
  store i32 %55, ptr %53, align 4
  %56 = load ptr, ptr %3, align 8
  %57 = getelementptr inbounds i32, ptr %56, i64 3
  %58 = load i32, ptr %57, align 4
  %59 = load ptr, ptr %3, align 8
  %60 = getelementptr inbounds i32, ptr %59, i64 0
  %61 = load i32, ptr %60, align 4
  %62 = add i32 %61, %58
  store i32 %62, ptr %60, align 4
  %63 = load ptr, ptr %3, align 8
  %64 = getelementptr inbounds i32, ptr %63, i64 3
  %65 = load i32, ptr %64, align 4
  %66 = call noundef i32 @_ZL18Integer_rotateLeftji(i32 noundef %65, i32 noundef 7)
  %67 = load ptr, ptr %3, align 8
  %68 = getelementptr inbounds i32, ptr %67, i64 3
  store i32 %66, ptr %68, align 4
  %69 = load ptr, ptr %3, align 8
  %70 = getelementptr inbounds i32, ptr %69, i64 0
  %71 = load i32, ptr %70, align 4
  %72 = load ptr, ptr %3, align 8
  %73 = getelementptr inbounds i32, ptr %72, i64 3
  %74 = load i32, ptr %73, align 4
  %75 = xor i32 %74, %71
  store i32 %75, ptr %73, align 4
  %76 = load ptr, ptr %3, align 8
  %77 = getelementptr inbounds i32, ptr %76, i64 1
  %78 = load i32, ptr %77, align 4
  %79 = load ptr, ptr %3, align 8
  %80 = getelementptr inbounds i32, ptr %79, i64 2
  %81 = load i32, ptr %80, align 4
  %82 = add i32 %81, %78
  store i32 %82, ptr %80, align 4
  %83 = load ptr, ptr %3, align 8
  %84 = getelementptr inbounds i32, ptr %83, i64 1
  %85 = load i32, ptr %84, align 4
  %86 = call noundef i32 @_ZL18Integer_rotateLeftji(i32 noundef %85, i32 noundef 13)
  %87 = load ptr, ptr %3, align 8
  %88 = getelementptr inbounds i32, ptr %87, i64 1
  store i32 %86, ptr %88, align 4
  %89 = load ptr, ptr %3, align 8
  %90 = getelementptr inbounds i32, ptr %89, i64 2
  %91 = load i32, ptr %90, align 4
  %92 = load ptr, ptr %3, align 8
  %93 = getelementptr inbounds i32, ptr %92, i64 1
  %94 = load i32, ptr %93, align 4
  %95 = xor i32 %94, %91
  store i32 %95, ptr %93, align 4
  %96 = load ptr, ptr %3, align 8
  %97 = getelementptr inbounds i32, ptr %96, i64 2
  %98 = load i32, ptr %97, align 4
  %99 = call noundef i32 @_ZL18Integer_rotateLeftji(i32 noundef %98, i32 noundef 16)
  %100 = load ptr, ptr %3, align 8
  %101 = getelementptr inbounds i32, ptr %100, i64 2
  store i32 %99, ptr %101, align 4
  br label %5, !llvm.loop !14

102:                                              ; preds = %5
  ret void
}

; Function Attrs: mustprogress nounwind uwtable
define internal noundef i32 @_ZL20halfsiphash_finish32Pji(ptr noundef %0, i32 noundef %1) #1 {
  %3 = alloca ptr, align 8
  %4 = alloca i32, align 4
  store ptr %0, ptr %3, align 8
  store i32 %1, ptr %4, align 4
  %5 = load ptr, ptr %3, align 8
  %6 = getelementptr inbounds i32, ptr %5, i64 2
  %7 = load i32, ptr %6, align 4
  %8 = xor i32 %7, 255
  store i32 %8, ptr %6, align 4
  %9 = load ptr, ptr %3, align 8
  %10 = load i32, ptr %4, align 4
  call void @_ZL18halfsiphash_roundsPji(ptr noundef %9, i32 noundef %10)
  %11 = load ptr, ptr %3, align 8
  %12 = getelementptr inbounds i32, ptr %11, i64 1
  %13 = load i32, ptr %12, align 4
  %14 = load ptr, ptr %3, align 8
  %15 = getelementptr inbounds i32, ptr %14, i64 3
  %16 = load i32, ptr %15, align 4
  %17 = xor i32 %13, %16
  ret i32 %17
}

; Function Attrs: mustprogress nounwind uwtable
define internal void @_ZL19halfsiphash_adddataPjji(ptr noundef %0, i32 noundef %1, i32 noundef %2) #1 {
  %4 = alloca ptr, align 8
  %5 = alloca i32, align 4
  %6 = alloca i32, align 4
  store ptr %0, ptr %4, align 8
  store i32 %1, ptr %5, align 4
  store i32 %2, ptr %6, align 4
  %7 = load i32, ptr %5, align 4
  %8 = load ptr, ptr %4, align 8
  %9 = getelementptr inbounds i32, ptr %8, i64 3
  %10 = load i32, ptr %9, align 4
  %11 = xor i32 %10, %7
  store i32 %11, ptr %9, align 4
  %12 = load ptr, ptr %4, align 8
  %13 = load i32, ptr %6, align 4
  call void @_ZL18halfsiphash_roundsPji(ptr noundef %12, i32 noundef %13)
  %14 = load i32, ptr %5, align 4
  %15 = load ptr, ptr %4, align 8
  %16 = getelementptr inbounds i32, ptr %15, i64 0
  %17 = load i32, ptr %16, align 4
  %18 = xor i32 %17, %14
  store i32 %18, ptr %16, align 4
  ret void
}

; Function Attrs: mustprogress nounwind uwtable
define internal void @_ZL18halfsiphash_init32Pjm(ptr noundef %0, i64 noundef %1) #1 {
  %3 = alloca ptr, align 8
  %4 = alloca i64, align 8
  store ptr %0, ptr %3, align 8
  store i64 %1, ptr %4, align 8
  %5 = load i64, ptr %4, align 8
  %6 = and i64 %5, 4294967295
  %7 = trunc i64 %6 to i32
  %8 = load ptr, ptr %3, align 8
  %9 = getelementptr inbounds i32, ptr %8, i64 0
  store i32 %7, ptr %9, align 4
  %10 = load i64, ptr %4, align 8
  %11 = lshr i64 %10, 32
  %12 = trunc i64 %11 to i32
  %13 = load ptr, ptr %3, align 8
  %14 = getelementptr inbounds i32, ptr %13, i64 1
  store i32 %12, ptr %14, align 4
  %15 = load ptr, ptr %3, align 8
  %16 = getelementptr inbounds i32, ptr %15, i64 0
  %17 = load i32, ptr %16, align 4
  %18 = xor i32 1819895653, %17
  %19 = load ptr, ptr %3, align 8
  %20 = getelementptr inbounds i32, ptr %19, i64 2
  store i32 %18, ptr %20, align 4
  %21 = load ptr, ptr %3, align 8
  %22 = getelementptr inbounds i32, ptr %21, i64 1
  %23 = load i32, ptr %22, align 4
  %24 = xor i32 1952801890, %23
  %25 = load ptr, ptr %3, align 8
  %26 = getelementptr inbounds i32, ptr %25, i64 3
  store i32 %24, ptr %26, align 4
  ret void
}

; Function Attrs: mustprogress nounwind uwtable
define hidden noundef i32 @_ZN10AltHashing14halfsiphash_32EmPKvi(i64 noundef %0, ptr noundef %1, i32 noundef %2) #1 align 2 {
  %4 = alloca i64, align 8
  %5 = alloca ptr, align 8
  %6 = alloca i32, align 4
  %7 = alloca ptr, align 8
  %8 = alloca [4 x i32], align 16
  %9 = alloca i32, align 4
  %10 = alloca i32, align 4
  %11 = alloca i32, align 4
  store i64 %0, ptr %4, align 8
  store ptr %1, ptr %5, align 8
  store i32 %2, ptr %6, align 4
  %12 = load ptr, ptr %5, align 8
  store ptr %12, ptr %7, align 8
  store i32 0, ptr %10, align 4
  %13 = load i32, ptr %6, align 4
  store i32 %13, ptr %11, align 4
  %14 = getelementptr inbounds [4 x i32], ptr %8, i64 0, i64 0
  %15 = load i64, ptr %4, align 8
  call void @_ZL18halfsiphash_init32Pjm(ptr noundef %14, i64 noundef %15)
  br label %16

16:                                               ; preds = %19, %3
  %17 = load i32, ptr %11, align 4
  %18 = icmp sge i32 %17, 4
  br i1 %18, label %19, label %62

19:                                               ; preds = %16
  %20 = load ptr, ptr %7, align 8
  %21 = load i32, ptr %10, align 4
  %22 = sext i32 %21 to i64
  %23 = getelementptr inbounds i8, ptr %20, i64 %22
  %24 = load i8, ptr %23, align 1
  %25 = zext i8 %24 to i32
  %26 = and i32 %25, 255
  %27 = load ptr, ptr %7, align 8
  %28 = load i32, ptr %10, align 4
  %29 = add nsw i32 %28, 1
  %30 = sext i32 %29 to i64
  %31 = getelementptr inbounds i8, ptr %27, i64 %30
  %32 = load i8, ptr %31, align 1
  %33 = zext i8 %32 to i32
  %34 = and i32 %33, 255
  %35 = shl i32 %34, 8
  %36 = or i32 %26, %35
  %37 = load ptr, ptr %7, align 8
  %38 = load i32, ptr %10, align 4
  %39 = add nsw i32 %38, 2
  %40 = sext i32 %39 to i64
  %41 = getelementptr inbounds i8, ptr %37, i64 %40
  %42 = load i8, ptr %41, align 1
  %43 = zext i8 %42 to i32
  %44 = and i32 %43, 255
  %45 = shl i32 %44, 16
  %46 = or i32 %36, %45
  %47 = load ptr, ptr %7, align 8
  %48 = load i32, ptr %10, align 4
  %49 = add nsw i32 %48, 3
  %50 = sext i32 %49 to i64
  %51 = getelementptr inbounds i8, ptr %47, i64 %50
  %52 = load i8, ptr %51, align 1
  %53 = zext i8 %52 to i32
  %54 = shl i32 %53, 24
  %55 = or i32 %46, %54
  store i32 %55, ptr %9, align 4
  %56 = load i32, ptr %11, align 4
  %57 = sub nsw i32 %56, 4
  store i32 %57, ptr %11, align 4
  %58 = load i32, ptr %10, align 4
  %59 = add nsw i32 %58, 4
  store i32 %59, ptr %10, align 4
  %60 = getelementptr inbounds [4 x i32], ptr %8, i64 0, i64 0
  %61 = load i32, ptr %9, align 4
  call void @_ZL19halfsiphash_adddataPjji(ptr noundef %60, i32 noundef %61, i32 noundef 2)
  br label %16, !llvm.loop !6

62:                                               ; preds = %16
  %63 = load i32, ptr %6, align 4
  %64 = shl i32 %63, 24
  store i32 %64, ptr %9, align 4
  %65 = load i32, ptr %11, align 4
  %66 = icmp sgt i32 %65, 0
  br i1 %66, label %67, label %104

67:                                               ; preds = %62
  %68 = load i32, ptr %11, align 4
  switch i32 %68, label %103 [
    i32 3, label %69
    i32 2, label %81
    i32 1, label %93
  ]

69:                                               ; preds = %67
  %70 = load ptr, ptr %7, align 8
  %71 = load i32, ptr %10, align 4
  %72 = add nsw i32 %71, 2
  %73 = sext i32 %72 to i64
  %74 = getelementptr inbounds i8, ptr %70, i64 %73
  %75 = load i8, ptr %74, align 1
  %76 = zext i8 %75 to i32
  %77 = and i32 %76, 255
  %78 = shl i32 %77, 16
  %79 = load i32, ptr %9, align 4
  %80 = or i32 %79, %78
  store i32 %80, ptr %9, align 4
  br label %81

81:                                               ; preds = %69, %67
  %82 = load ptr, ptr %7, align 8
  %83 = load i32, ptr %10, align 4
  %84 = add nsw i32 %83, 1
  %85 = sext i32 %84 to i64
  %86 = getelementptr inbounds i8, ptr %82, i64 %85
  %87 = load i8, ptr %86, align 1
  %88 = zext i8 %87 to i32
  %89 = and i32 %88, 255
  %90 = shl i32 %89, 8
  %91 = load i32, ptr %9, align 4
  %92 = or i32 %91, %90
  store i32 %92, ptr %9, align 4
  br label %93

93:                                               ; preds = %81, %67
  %94 = load ptr, ptr %7, align 8
  %95 = load i32, ptr %10, align 4
  %96 = sext i32 %95 to i64
  %97 = getelementptr inbounds i8, ptr %94, i64 %96
  %98 = load i8, ptr %97, align 1
  %99 = zext i8 %98 to i32
  %100 = and i32 %99, 255
  %101 = load i32, ptr %9, align 4
  %102 = or i32 %101, %100
  store i32 %102, ptr %9, align 4
  br label %103

103:                                              ; preds = %93, %67
  br label %104

104:                                              ; preds = %103, %62
  %105 = getelementptr inbounds [4 x i32], ptr %8, i64 0, i64 0
  %106 = load i32, ptr %9, align 4
  call void @_ZL19halfsiphash_adddataPjji(ptr noundef %105, i32 noundef %106, i32 noundef 2)
  %107 = getelementptr inbounds [4 x i32], ptr %8, i64 0, i64 0
  %108 = call noundef i32 @_ZL20halfsiphash_finish32Pji(ptr noundef %107, i32 noundef 4)
  ret i32 %108
}