; Function Attrs: mustprogress nofree norecurse nosync nounwind willreturn memory(argmem: read) uwtable
define hidden noundef i32 @_ZN10AltHashing14halfsiphash_32EmPKvi(i64 noundef %0, ptr nocapture noundef readonly %1, i32 noundef %2) local_unnamed_addr #2 align 2 {
  %4 = trunc i64 %0 to i32
  %5 = lshr i64 %0, 32
  %6 = trunc nuw i64 %5 to i32
  %7 = xor i32 %4, 1819895653
  %8 = xor i32 %6, 1952801890
  %9 = icmp sgt i32 %2, 3
  br i1 %9, label %.lr.ph, label %._crit_edge

.lr.ph:                                           ; preds = %3, %_ZL19halfsiphash_adddataPjji.exit
  %indvars.iv = phi i64 [ %indvars.iv.next, %_ZL19halfsiphash_adddataPjji.exit ], [ 0, %3 ]
  %.059 = phi i32 [ %31, %_ZL19halfsiphash_adddataPjji.exit ], [ %2, %3 ]
  %.sroa.0.057 = phi i32 [ %54, %_ZL19halfsiphash_adddataPjji.exit ], [ %4, %3 ]
  %.sroa.7.056 = phi i32 [ %51, %_ZL19halfsiphash_adddataPjji.exit ], [ %6, %3 ]
  %.sroa.14.055 = phi i32 [ %52, %_ZL19halfsiphash_adddataPjji.exit ], [ %7, %3 ]
  %.sroa.21.054 = phi i32 [ %48, %_ZL19halfsiphash_adddataPjji.exit ], [ %8, %3 ]
  %10 = getelementptr inbounds i8, ptr %1, i64 %indvars.iv
  %11 = load i8, ptr %10, align 1
  %12 = zext i8 %11 to i32
  %13 = or disjoint i64 %indvars.iv, 1
  %14 = getelementptr inbounds i8, ptr %1, i64 %13
  %15 = load i8, ptr %14, align 1
  %16 = zext i8 %15 to i32
  %17 = shl nuw nsw i32 %16, 8
  %18 = or disjoint i32 %17, %12
  %19 = or disjoint i64 %indvars.iv, 2
  %20 = getelementptr inbounds i8, ptr %1, i64 %19
  %21 = load i8, ptr %20, align 1
  %22 = zext i8 %21 to i32
  %23 = shl nuw nsw i32 %22, 16
  %24 = or disjoint i32 %18, %23
  %25 = or disjoint i64 %indvars.iv, 3
  %26 = getelementptr inbounds i8, ptr %1, i64 %25
  %27 = load i8, ptr %26, align 1
  %28 = zext i8 %27 to i32
  %29 = shl nuw i32 %28, 24
  %30 = or disjoint i32 %24, %29
  %31 = add nsw i32 %.059, -4
  %32 = xor i32 %30, %.sroa.21.054
  br label %33

33:                                               ; preds = %33, %.lr.ph
  %34 = phi i32 [ %.sroa.14.055, %.lr.ph ], [ %52, %33 ]
  %35 = phi i32 [ %32, %.lr.ph ], [ %48, %33 ]
  %36 = phi i32 [ %.sroa.0.057, %.lr.ph ], [ %46, %33 ]
  %37 = phi i32 [ %.sroa.7.056, %.lr.ph ], [ %51, %33 ]
  %.028.i.i = phi i32 [ 2, %.lr.ph ], [ %38, %33 ]
  %38 = add nsw i32 %.028.i.i, -1
  %39 = add i32 %37, %36
  %40 = tail call i32 @llvm.fshl.i32(i32 %37, i32 %37, i32 5)
  %41 = xor i32 %39, %40
  %42 = tail call i32 @llvm.fshl.i32(i32 %39, i32 %39, i32 16)
  %43 = add i32 %35, %34
  %44 = tail call i32 @llvm.fshl.i32(i32 %35, i32 %35, i32 8)
  %45 = xor i32 %43, %44
  %46 = add i32 %42, %45
  %47 = tail call i32 @llvm.fshl.i32(i32 %45, i32 %45, i32 7)
  %48 = xor i32 %46, %47
  %49 = add i32 %41, %43
  %50 = tail call i32 @llvm.fshl.i32(i32 %41, i32 %41, i32 13)
  %51 = xor i32 %49, %50
  %52 = tail call i32 @llvm.fshl.i32(i32 %49, i32 %49, i32 16)
  %53 = icmp ugt i32 %.028.i.i, 1
  br i1 %53, label %33, label %_ZL19halfsiphash_adddataPjji.exit, !llvm.loop !6

_ZL19halfsiphash_adddataPjji.exit:                ; preds = %33
  %indvars.iv.next = add nuw nsw i64 %indvars.iv, 4
  %54 = xor i32 %46, %30
  %55 = icmp sgt i32 %.059, 7
  br i1 %55, label %.lr.ph, label %._crit_edge.loopexit, !llvm.loop !8

._crit_edge.loopexit:                             ; preds = %_ZL19halfsiphash_adddataPjji.exit
  %56 = trunc nuw nsw i64 %indvars.iv.next to i32
  br label %._crit_edge

._crit_edge:                                      ; preds = %._crit_edge.loopexit, %3
  %.sroa.21.0.lcssa = phi i32 [ %8, %3 ], [ %48, %._crit_edge.loopexit ]
  %.sroa.14.0.lcssa = phi i32 [ %7, %3 ], [ %52, %._crit_edge.loopexit ]
  %.sroa.7.0.lcssa = phi i32 [ %6, %3 ], [ %51, %._crit_edge.loopexit ]
  %.sroa.0.0.lcssa = phi i32 [ %4, %3 ], [ %54, %._crit_edge.loopexit ]
  %.027.lcssa = phi i32 [ 0, %3 ], [ %56, %._crit_edge.loopexit ]
  %.0.lcssa = phi i32 [ %2, %3 ], [ %31, %._crit_edge.loopexit ]
  %57 = shl i32 %2, 24
  %58 = icmp sgt i32 %.0.lcssa, 0
  br i1 %58, label %59, label %82

59:                                               ; preds = %._crit_edge
  switch i32 %.0.lcssa, label %default.unreachable [
    i32 3, label %60
    i32 2, label %68
    i32 1, label %76
  ]

60:                                               ; preds = %59
  %61 = or disjoint i32 %.027.lcssa, 2
  %62 = zext nneg i32 %61 to i64
  %63 = getelementptr inbounds i8, ptr %1, i64 %62
  %64 = load i8, ptr %63, align 1
  %65 = zext i8 %64 to i32
  %66 = shl nuw nsw i32 %65, 16
  %67 = or disjoint i32 %66, %57
  br label %68

68:                                               ; preds = %60, %59
  %.028 = phi i32 [ %57, %59 ], [ %67, %60 ]
  %69 = or disjoint i32 %.027.lcssa, 1
  %70 = zext nneg i32 %69 to i64
  %71 = getelementptr inbounds i8, ptr %1, i64 %70
  %72 = load i8, ptr %71, align 1
  %73 = zext i8 %72 to i32
  %74 = shl nuw nsw i32 %73, 8
  %75 = or i32 %74, %.028
  br label %76

76:                                               ; preds = %68, %59
  %.1 = phi i32 [ %57, %59 ], [ %75, %68 ]
  %77 = zext nneg i32 %.027.lcssa to i64
  %78 = getelementptr inbounds i8, ptr %1, i64 %77
  %79 = load i8, ptr %78, align 1
  %80 = zext i8 %79 to i32
  %81 = or i32 %.1, %80
  br label %82

default.unreachable:                              ; preds = %59
  unreachable

82:                                               ; preds = %76, %._crit_edge
  %.2 = phi i32 [ %81, %76 ], [ %57, %._crit_edge ]
  %83 = xor i32 %.2, %.sroa.21.0.lcssa
  br label %84

84:                                               ; preds = %84, %82
  %85 = phi i32 [ %.sroa.14.0.lcssa, %82 ], [ %103, %84 ]
  %86 = phi i32 [ %83, %82 ], [ %99, %84 ]
  %87 = phi i32 [ %.sroa.0.0.lcssa, %82 ], [ %97, %84 ]
  %88 = phi i32 [ %.sroa.7.0.lcssa, %82 ], [ %102, %84 ]
  %.028.i.i32 = phi i32 [ 2, %82 ], [ %89, %84 ]
  %89 = add nsw i32 %.028.i.i32, -1
  %90 = add i32 %88, %87
  %91 = tail call i32 @llvm.fshl.i32(i32 %88, i32 %88, i32 5)
  %92 = xor i32 %90, %91
  %93 = tail call i32 @llvm.fshl.i32(i32 %90, i32 %90, i32 16)
  %94 = add i32 %86, %85
  %95 = tail call i32 @llvm.fshl.i32(i32 %86, i32 %86, i32 8)
  %96 = xor i32 %94, %95
  %97 = add i32 %93, %96
  %98 = tail call i32 @llvm.fshl.i32(i32 %96, i32 %96, i32 7)
  %99 = xor i32 %97, %98
  %100 = add i32 %92, %94
  %101 = tail call i32 @llvm.fshl.i32(i32 %92, i32 %92, i32 13)
  %102 = xor i32 %100, %101
  %103 = tail call i32 @llvm.fshl.i32(i32 %100, i32 %100, i32 16)
  %104 = icmp ugt i32 %.028.i.i32, 1
  br i1 %104, label %84, label %_ZL19halfsiphash_adddataPjji.exit33, !llvm.loop !6

_ZL19halfsiphash_adddataPjji.exit33:              ; preds = %84
  %105 = xor i32 %97, %.2
  %106 = xor i32 %103, 255
  br label %107

107:                                              ; preds = %107, %_ZL19halfsiphash_adddataPjji.exit33
  %108 = phi i32 [ %106, %_ZL19halfsiphash_adddataPjji.exit33 ], [ %126, %107 ]
  %109 = phi i32 [ %99, %_ZL19halfsiphash_adddataPjji.exit33 ], [ %122, %107 ]
  %110 = phi i32 [ %105, %_ZL19halfsiphash_adddataPjji.exit33 ], [ %120, %107 ]
  %111 = phi i32 [ %102, %_ZL19halfsiphash_adddataPjji.exit33 ], [ %125, %107 ]
  %.028.i.i36 = phi i32 [ 4, %_ZL19halfsiphash_adddataPjji.exit33 ], [ %112, %107 ]
  %112 = add nsw i32 %.028.i.i36, -1
  %113 = add i32 %111, %110
  %114 = tail call i32 @llvm.fshl.i32(i32 %111, i32 %111, i32 5)
  %115 = xor i32 %113, %114
  %116 = tail call i32 @llvm.fshl.i32(i32 %113, i32 %113, i32 16)
  %117 = add i32 %109, %108
  %118 = tail call i32 @llvm.fshl.i32(i32 %109, i32 %109, i32 8)
  %119 = xor i32 %117, %118
  %120 = add i32 %116, %119
  %121 = tail call i32 @llvm.fshl.i32(i32 %119, i32 %119, i32 7)
  %122 = xor i32 %120, %121
  %123 = add i32 %115, %117
  %124 = tail call i32 @llvm.fshl.i32(i32 %115, i32 %115, i32 13)
  %125 = xor i32 %123, %124
  %126 = tail call i32 @llvm.fshl.i32(i32 %123, i32 %123, i32 16)
  %127 = icmp ugt i32 %.028.i.i36, 1
  br i1 %127, label %107, label %_ZL20halfsiphash_finish32Pji.exit, !llvm.loop !6

_ZL20halfsiphash_finish32Pji.exit:                ; preds = %107
  %128 = xor i32 %125, %122
  ret i32 %128
}